EXPORTS
	qt_testability_init @ 1 NONAME
	_ZN10TasCommand12addParameterERK7QStringS2_ @ 2 NONAME
	_ZN10TasCommand12apiParameterERK7QString @ 3 NONAME
	_ZN10TasCommand15addApiParameterERK7QStringS2_S2_ @ 4 NONAME
	_ZN10TasCommand19apiParameterAndTypeERK7QString @ 5 NONAME
	_ZN10TasCommand7setNameERK7QString @ 6 NONAME
	_ZN10TasCommand7setTextERK7QString @ 7 NONAME
	_ZN10TasCommand9parameterERK7QString @ 8 NONAME
	_ZN10TasCommandC1ERK7QString @ 9 NONAME
	_ZN10TasCommandC1ERKS_ @ 10 NONAME
	_ZN10TasCommandC2ERK7QString @ 11 NONAME
	_ZN10TasCommandC2ERKS_ @ 12 NONAME
	_ZN10TasCommandD1Ev @ 13 NONAME
	_ZN10TasCommandD2Ev @ 14 NONAME
	_ZN10TasMessage10setIsErrorEb @ 15 NONAME
	_ZN10TasMessage12dataAsStringEv @ 16 NONAME
	_ZN10TasMessage12setMessageIdEi @ 17 NONAME
	_ZN10TasMessage14dataCompressedEv @ 18 NONAME
	_ZN10TasMessage14uncompressDataEv @ 19 NONAME
	_ZN10TasMessage15setErrorMessageE7QString @ 20 NONAME
	_ZN10TasMessage15setIsCompressedEb @ 21 NONAME
	_ZN10TasMessage4dataEv @ 22 NONAME
	_ZN10TasMessage7isErrorEv @ 23 NONAME
	_ZN10TasMessage7setDataE7QString @ 24 NONAME
	_ZN10TasMessage7setDataEP10QByteArrayb @ 25 NONAME
	_ZN10TasMessage7setFlagEh @ 26 NONAME
	_ZN10TasMessage9messageIdEv @ 27 NONAME
	_ZN10TasMessageC1EhbP10QByteArrayi @ 28 NONAME
	_ZN10TasMessageC1Ev @ 29 NONAME
	_ZN10TasMessageC2EhbP10QByteArrayi @ 30 NONAME
	_ZN10TasMessageC2Ev @ 31 NONAME
	_ZN10TasMessageD1Ev @ 32 NONAME
	_ZN10TasMessageD2Ev @ 33 NONAME
	_ZN11TasResponse12setRequesterEP9TasSocket @ 34 NONAME
	_ZN11TasResponse9requesterEv @ 35 NONAME
	_ZN11TasResponseC1EiP10QByteArraybb @ 36 NONAME
	_ZN11TasResponseC2EiP10QByteArraybb @ 37 NONAME
	_ZN11TasResponseD1Ev @ 38 NONAME
	_ZN11TasResponseD2Ev @ 39 NONAME
	_ZN12TasAttribute11setDataTypeERK7QString @ 40 NONAME
	_ZN12TasAttribute19serializeIntoStringER12TasXmlWriterR15SerializeFilter @ 41 NONAME
	_ZN12TasAttribute7setNameERK7QString @ 42 NONAME
	_ZN12TasAttribute7setTypeERK7QString @ 43 NONAME
	_ZN12TasAttribute8addValueERK5QRect @ 44 NONAME
	_ZN12TasAttribute8addValueERK5QSize @ 45 NONAME
	_ZN12TasAttribute8addValueERK6QPoint @ 46 NONAME
	_ZN12TasAttribute8addValueERK6QRectF @ 47 NONAME
	_ZN12TasAttribute8addValueERK6QSizeF @ 48 NONAME
	_ZN12TasAttribute8addValueERK7QPointF @ 49 NONAME
	_ZN12TasAttribute8addValueERK7QString @ 50 NONAME
	_ZN12TasAttributeC1Ev @ 51 NONAME
	_ZN12TasAttributeC2Ev @ 52 NONAME
	_ZN12TasAttributeD1Ev @ 53 NONAME
	_ZN12TasAttributeD2Ev @ 54 NONAME
	_ZN12TasCoreUtils11startServerEv @ 55 NONAME
	_ZN12TasCoreUtils15parseExecutableE7QString @ 56 NONAME
	_ZN12TasCoreUtils18getApplicationNameEv @ 57 NONAME
	_ZN12TasCoreUtils4waitEi @ 58 NONAME
	_ZN12TasCoreUtils8objectIdEP7QObject @ 59 NONAME
	_ZN12TasCoreUtils9eventTypeEP6QEvent @ 60 NONAME
	_ZN12TasCoreUtils9pointerIdEPv @ 61 NONAME
	_ZN12TasDataModel10clearModelEv @ 62 NONAME
	_ZN12TasDataModel14serializeModelER10QByteArrayP15SerializeFilter @ 63 NONAME
	_ZN12TasDataModel19findObjectContainerERK7QString @ 64 NONAME
	_ZN12TasDataModel19serializeIntoStringER12TasXmlWriterR15SerializeFilter @ 65 NONAME
	_ZN12TasDataModel21addNewObjectContainerERK7QStringS2_ @ 66 NONAME
	_ZN12TasDataModel21addNewObjectContainerEiRK7QStringS2_ @ 67 NONAME
	_ZN12TasDataModel21addNewObjectContainerEv @ 68 NONAME
	_ZN12TasDataModelC1Ev @ 69 NONAME
	_ZN12TasDataModelC2Ev @ 70 NONAME
	_ZN12TasDataModelD1Ev @ 71 NONAME
	_ZN12TasDataModelD2Ev @ 72 NONAME
	_ZN12TasDataShare14loadSharedDataERK7QString @ 73 NONAME
	_ZN12TasDataShare15storeSharedDataERK7QStringRK13TasSharedData @ 74 NONAME
	_ZN12TasDataShare16detachSharedDataERK7QString @ 75 NONAME
	_ZN12TasDataShareC1Ev @ 76 NONAME
	_ZN12TasDataShareC2Ev @ 77 NONAME
	_ZN12TasDataShareD1Ev @ 78 NONAME
	_ZN12TasDataShareD2Ev @ 79 NONAME
	_ZN12TasXmlWriter11openElementERK7QString @ 80 NONAME
	_ZN12TasXmlWriter11openElementERK7QString4QMapIS0_S0_E @ 81 NONAME
	_ZN12TasXmlWriter12closeElementERK7QString @ 82 NONAME
	_ZN12TasXmlWriter12encodeStringERK7QString @ 83 NONAME
	_ZN12TasXmlWriter14addTextContentERK7QString @ 84 NONAME
	_ZN12TasXmlWriterC1ER11QTextStream @ 85 NONAME
	_ZN12TasXmlWriterC2ER11QTextStream @ 86 NONAME
	_ZN12TasXmlWriterD1Ev @ 87 NONAME
	_ZN12TasXmlWriterD2Ev @ 88 NONAME
	_ZN13TasSharedData12creationTimeEv @ 89 NONAME
	_ZN13TasSharedData14eventsToListenEv @ 90 NONAME
	_ZN13TasSharedData15signalsToListenEv @ 91 NONAME
	_ZN13TasSharedDataC1E11QStringListS0_ @ 92 NONAME
	_ZN13TasSharedDataC1E7QString @ 93 NONAME
	_ZN13TasSharedDataC2E11QStringListS0_ @ 94 NONAME
	_ZN13TasSharedDataC2E7QString @ 95 NONAME
	_ZN13TasSharedDataD1Ev @ 96 NONAME
	_ZN13TasSharedDataD2Ev @ 97 NONAME
	_ZN14TasDeviceUtils13gpuMemDetailsEv @ 98 NONAME
	_ZN14TasDeviceUtils14sendMouseEventEiiN2Qt11MouseButtonEN6QEvent4TypeE @ 99 NONAME
	_ZN14TasDeviceUtils15isServerRunningEv @ 100 NONAME
	_ZN14TasDeviceUtils15resetInactivityEv @ 101 NONAME
	_ZN14TasDeviceUtils20addSystemInformationER9TasObject @ 102 NONAME
	_ZN14TasDeviceUtils21addSystemMemoryStatusER9TasObject @ 103 NONAME
	_ZN14TasDeviceUtils21currentProcessCpuTimeEv @ 104 NONAME
	_ZN14TasDeviceUtils22currentProcessHeapSizeEv @ 105 NONAME
	_ZN14TasDeviceUtilsC1Ev @ 106 NONAME
	_ZN14TasDeviceUtilsC2Ev @ 107 NONAME
	_ZN14TasUiTraverser10getUiStateEP10TasCommand @ 108 NONAME
	_ZN14TasUiTraverser12filterPluginERK7QString @ 109 NONAME
	_ZN14TasUiTraverser14setFilterListsEP10TasCommand @ 110 NONAME
	_ZN14TasUiTraverser14traverseObjectER9TasObjectP7QObjectP10TasCommand @ 111 NONAME
	_ZN14TasUiTraverser20traverseGraphicsItemER9TasObjectP13QGraphicsItemP10TasCommand @ 112 NONAME
	_ZN14TasUiTraverser21addApplicationDetailsER9TasObjectP10TasCommand @ 113 NONAME
	_ZN14TasUiTraverser24traverseGraphicsItemListER9TasObjectP13QGraphicsItemP10TasCommand @ 114 NONAME
	_ZN14TasUiTraverser25traverseGraphicsViewItemsER9TasObjectP13QGraphicsViewP10TasCommand @ 115 NONAME
	_ZN14TasUiTraverserC1E5QHashI7QStringP20TasTraverseInterfaceE @ 116 NONAME
	_ZN14TasUiTraverserC2E5QHashI7QStringP20TasTraverseInterfaceE @ 117 NONAME
	_ZN14TasUiTraverserD0Ev @ 118 NONAME
	_ZN14TasUiTraverserD1Ev @ 119 NONAME
	_ZN14TasUiTraverserD2Ev @ 120 NONAME
	_ZN15SerializeFilter15serializeObjectER9TasObject @ 121 NONAME
	_ZN15SerializeFilter18serializeAttributeER12TasAttribute @ 122 NONAME
	_ZN15SerializeFilter18serializeContainerER18TasObjectContainer @ 123 NONAME
	_ZN15SerializeFilter19serializeDuplicatesEb @ 124 NONAME
	_ZN15SerializeFilterC1Ev @ 125 NONAME
	_ZN15SerializeFilterC2Ev @ 126 NONAME
	_ZN15SerializeFilterD0Ev @ 127 NONAME
	_ZN15SerializeFilterD1Ev @ 128 NONAME
	_ZN15SerializeFilterD2Ev @ 129 NONAME
	_ZN15TasClientSocket11qt_metacallEN11QMetaObject4CallEiPPv @ 130 NONAME
	_ZN15TasClientSocket11qt_metacastEPKc @ 131 NONAME
	_ZN15TasClientSocket12disconnectedEv @ 132 NONAME
	_ZN15TasClientSocket15closeConnectionEv @ 133 NONAME
	_ZN15TasClientSocket16staticMetaObjectE @ 134 NONAME DATA 16
	_ZN15TasClientSocket19getStaticMetaObjectEv @ 135 NONAME
	_ZN15TasClientSocketC1ER9QIODeviceP7QObject @ 136 NONAME
	_ZN15TasClientSocketC2ER9QIODeviceP7QObject @ 137 NONAME
	_ZN15TasCommandModel10findTargetERK7QString @ 138 NONAME
	_ZN15TasCommandModel10setServiceERK7QString @ 139 NONAME
	_ZN15TasCommandModel10targetListEv @ 140 NONAME
	_ZN15TasCommandModel11setIntervalEi @ 141 NONAME
	_ZN15TasCommandModel12isMultitouchEv @ 142 NONAME
	_ZN15TasCommandModel13forceUiUpdateEb @ 143 NONAME
	_ZN15TasCommandModel13forceUiUpdateEv @ 144 NONAME
	_ZN15TasCommandModel13setMultitouchEb @ 145 NONAME
	_ZN15TasCommandModel14isAsynchronousEv @ 146 NONAME
	_ZN15TasCommandModel15setAsynchronousEb @ 147 NONAME
	_ZN15TasCommandModel15setSourceStringERK7QString @ 148 NONAME
	_ZN15TasCommandModel5setIdERK7QString @ 149 NONAME
	_ZN15TasCommandModel7setNameERK7QString @ 150 NONAME
	_ZN15TasCommandModel8intervalEv @ 151 NONAME
	_ZN15TasCommandModel9addTargetERK7QString @ 152 NONAME
	_ZN15TasCommandModelC1Ev @ 153 NONAME
	_ZN15TasCommandModelC2Ev @ 154 NONAME
	_ZN15TasCommandModelD1Ev @ 155 NONAME
	_ZN15TasCommandModelD2Ev @ 156 NONAME
	_ZN15TasPluginLoader10loadPluginE7QString @ 157 NONAME
	_ZN15TasPluginLoader11listPluginsE7QString @ 158 NONAME
	_ZN15TasPluginLoader16tryToLoadFixtureE7QStringS0_ @ 159 NONAME
	_ZN15TasPluginLoader20loadFixtureInterfaceERK7QString @ 160 NONAME
	_ZN15TasPluginLoader24initializeFixturePluginsEv @ 161 NONAME
	_ZN15TasPluginLoaderC1Ev @ 162 NONAME
	_ZN15TasPluginLoaderC2Ev @ 163 NONAME
	_ZN15TasPluginLoaderD1Ev @ 164 NONAME
	_ZN15TasPluginLoaderD2Ev @ 165 NONAME
	_ZN15TasServerSocket11qt_metacallEN11QMetaObject4CallEiPPv @ 166 NONAME
	_ZN15TasServerSocket11qt_metacastEPKc @ 167 NONAME
	_ZN15TasServerSocket12disconnectedEv @ 168 NONAME
	_ZN15TasServerSocket15closeConnectionEv @ 169 NONAME
	_ZN15TasServerSocket16staticMetaObjectE @ 170 NONAME DATA 16
	_ZN15TasServerSocket17setIdentificationERK7QString @ 171 NONAME
	_ZN15TasServerSocket19getStaticMetaObjectEv @ 172 NONAME
	_ZN15TasServerSocketC1ER9QIODeviceP7QObject @ 173 NONAME
	_ZN15TasServerSocketC2ER9QIODeviceP7QObject @ 174 NONAME
	_ZN16TasCommandParser15parseCommandXmlERK7QString @ 175 NONAME
	_ZN16TasTraverseUtils11addTextInfoEP9TasObjectRK7QStringRK5QFontfN2Qt13TextElideModeE @ 176 NONAME
	_ZN16TasTraverseUtils11clearFilterEv @ 177 NONAME
	_ZN16TasTraverseUtils11getParentIdEP7QObject @ 178 NONAME
	_ZN16TasTraverseUtils12createFilterEP10TasCommand @ 179 NONAME
	_ZN16TasTraverseUtils15addVariantValueER12TasAttributeRK8QVariant @ 180 NONAME
	_ZN16TasTraverseUtils15printPropertiesEP9TasObjectP7QObject @ 181 NONAME
	_ZN16TasTraverseUtils16addObjectDetailsEP9TasObjectP7QObject @ 182 NONAME
	_ZN16TasTraverseUtils16includeAttributeERK7QString @ 183 NONAME
	_ZN16TasTraverseUtils26addGraphicsItemCoordinatesEP9TasObjectP13QGraphicsItemP10TasCommand @ 184 NONAME
	_ZN16TasTraverseUtils27printGraphicsItemPropertiesEP9TasObjectP13QGraphicsItem @ 185 NONAME
	_ZN16TasTraverseUtils7addFontEP9TasObject5QFont @ 186 NONAME
	_ZN16TasTraverseUtilsC1Ev @ 187 NONAME
	_ZN16TasTraverseUtilsC2Ev @ 188 NONAME
	_ZN16TasTraverseUtilsD1Ev @ 189 NONAME
	_ZN16TasTraverseUtilsD2Ev @ 190 NONAME
	_ZN16TestabilityUtils10findWidgetERK7QString @ 191 NONAME
	_ZN16TestabilityUtils11parentProxyEP7QWidget @ 192 NONAME
	_ZN16TestabilityUtils12isItemInViewEP13QGraphicsViewP13QGraphicsItem @ 193 NONAME
	_ZN16TestabilityUtils12lookForMatchE5QListIP13QGraphicsItemERK7QString @ 194 NONAME
	_ZN16TestabilityUtils13isBlackListedEv @ 195 NONAME
	_ZN16TestabilityUtils14findFromObjectERK7QStringP7QObject @ 196 NONAME
	_ZN16TestabilityUtils14getViewForItemEP13QGraphicsItem @ 197 NONAME
	_ZN16TestabilityUtils14graphicsItemIdEP13QGraphicsItem @ 198 NONAME
	_ZN16TestabilityUtils16findGraphicsItemERK7QString @ 199 NONAME
	_ZN16TestabilityUtils16isCustomTraverseEv @ 200 NONAME
	_ZN16TestabilityUtils16proxyCoordinatesEP13QGraphicsItemb @ 201 NONAME
	_ZN16TestabilityUtils19viewPortAndPositionEP13QGraphicsItemR6QPoint @ 202 NONAME
	_ZN16TestabilityUtils20castToGraphicsWidgetEP13QGraphicsItem @ 203 NONAME
	_ZN16TestabilityUtils20getApplicationWindowEv @ 204 NONAME
	_ZN16TestabilityUtils22getItemLocationDetailsEP13QGraphicsItemP10TasCommand @ 205 NONAME
	_ZN16TestabilityUtils23verifyGraphicsItemMatchERK7QStringP13QGraphicsItem @ 206 NONAME
	_ZN16TestabilityUtils9autostartEv @ 207 NONAME
	_ZN17TasServiceManager14performServiceER15TasCommandModelR11TasResponse @ 208 NONAME
	_ZN17TasServiceManager14serviceRequestER10TasMessageP9TasSocket @ 209 NONAME
	_ZN17TasServiceManager15registerCommandEP17TasServiceCommand @ 210 NONAME
	_ZN17TasServiceManager18parseMessageStringERK7QStringRS0_ @ 211 NONAME
	_ZN17TasServiceManager20handleServiceRequestER15TasCommandModelP9TasSocketi @ 212 NONAME
	_ZN17TasServiceManagerC1Ev @ 213 NONAME
	_ZN17TasServiceManagerC2Ev @ 214 NONAME
	_ZN17TasServiceManagerD0Ev @ 215 NONAME
	_ZN17TasServiceManagerD1Ev @ 216 NONAME
	_ZN17TasServiceManagerD2Ev @ 217 NONAME
	_ZN18TasObjectContainer12addNewObjectERK7QStringS2_S2_ @ 218 NONAME
	_ZN18TasObjectContainer12addNewObjectEv @ 219 NONAME
	_ZN18TasObjectContainer19serializeIntoStringER12TasXmlWriterR15SerializeFilter @ 220 NONAME
	_ZN18TasObjectContainer5setIdEi @ 221 NONAME
	_ZN18TasObjectContainer7setNameERK7QString @ 222 NONAME
	_ZN18TasObjectContainer7setTypeERK7QString @ 223 NONAME
	_ZN18TasObjectContainerC1Ev @ 224 NONAME
	_ZN18TasObjectContainerC2Ev @ 225 NONAME
	_ZN18TasObjectContainerD1Ev @ 226 NONAME
	_ZN18TasObjectContainerD2Ev @ 227 NONAME
	_ZN18TasTraverserLoader14loadTraversersEv @ 228 NONAME
	_ZN19TestabilitySettings14deleteInstanceEv @ 229 NONAME
	_ZN19TestabilitySettings8getValueERK7QString @ 230 NONAME
	_ZN19TestabilitySettings8setValueERK7QStringRK8QVariant @ 231 NONAME
	_ZN19TestabilitySettings8settingsEv @ 232 NONAME
	_ZN19TestabilitySettings9mInstanceE @ 233 NONAME DATA 4
	_ZN19TestabilitySettingsC1Ev @ 234 NONAME
	_ZN19TestabilitySettingsC2Ev @ 235 NONAME
	_ZN19TestabilitySettingsD1Ev @ 236 NONAME
	_ZN19TestabilitySettingsD2Ev @ 237 NONAME
	_ZN9TasLogger10setLogFileE7QString @ 238 NONAME
	_ZN9TasLogger10setLogSizeEi @ 239 NONAME
	_ZN9TasLogger12clearLogFileEv @ 240 NONAME
	_ZN9TasLogger12enableLoggerEv @ 241 NONAME
	_ZN9TasLogger12removeLoggerEv @ 242 NONAME
	_ZN9TasLogger12setOutputterEb @ 243 NONAME
	_ZN9TasLogger12writeLogLineE7LogTypeRK7QString @ 244 NONAME
	_ZN9TasLogger13disableLoggerEv @ 245 NONAME
	_ZN9TasLogger15configureLoggerER10TasCommand @ 246 NONAME
	_ZN9TasLogger16stopEventLoggingEv @ 247 NONAME
	_ZN9TasLogger20configureEventLoggerER10TasCommand @ 248 NONAME
	_ZN9TasLogger4infoE7QString @ 249 NONAME
	_ZN9TasLogger5debugE7QString @ 250 NONAME
	_ZN9TasLogger5errorE7QString @ 251 NONAME
	_ZN9TasLogger5fatalE7QString @ 252 NONAME
	_ZN9TasLogger6loggerEv @ 253 NONAME
	_ZN9TasLogger6outPutERK7QString @ 254 NONAME
	_ZN9TasLogger7warningE7QString @ 255 NONAME
	_ZN9TasLogger8setLevelERK7LogType @ 256 NONAME
	_ZN9TasLogger9logEventsE11QStringList @ 257 NONAME
	_ZN9TasLogger9mInstanceE @ 258 NONAME DATA 4
	_ZN9TasLogger9setLogDirE7QString @ 259 NONAME
	_ZN9TasLogger9useQDebugEb @ 260 NONAME
	_ZN9TasLoggerC1Ev @ 261 NONAME
	_ZN9TasLoggerC2Ev @ 262 NONAME
	_ZN9TasLoggerD1Ev @ 263 NONAME
	_ZN9TasLoggerD2Ev @ 264 NONAME
	_ZN9TasObject11setParentIdERK7QString @ 265 NONAME
	_ZN9TasObject12addAttributeERK7QStringRK5QRect @ 266 NONAME
	_ZN9TasObject12addAttributeERK7QStringRK5QSize @ 267 NONAME
	_ZN9TasObject12addAttributeERK7QStringRK6QPoint @ 268 NONAME
	_ZN9TasObject12addAttributeERK7QStringRK6QRectF @ 269 NONAME
	_ZN9TasObject12addAttributeERK7QStringRK6QSizeF @ 270 NONAME
	_ZN9TasObject12addAttributeERK7QStringRK7QPointF @ 271 NONAME
	_ZN9TasObject12addAttributeERK7QStringS2_ @ 272 NONAME
	_ZN9TasObject12addAttributeERK7QStringf @ 273 NONAME
	_ZN9TasObject12addAttributeERK7QStringi @ 274 NONAME
	_ZN9TasObject12addAttributeEv @ 275 NONAME
	_ZN9TasObject12addNewObjectE7QStringRKS0_S2_ @ 276 NONAME
	_ZN9TasObject19addBooleanAttributeERK7QStringb @ 277 NONAME
	_ZN9TasObject19serializeIntoStringER12TasXmlWriterR15SerializeFilter @ 278 NONAME
	_ZN9TasObject5setIdERK7QString @ 279 NONAME
	_ZN9TasObject7getTypeEv @ 280 NONAME
	_ZN9TasObject7setNameERK7QString @ 281 NONAME
	_ZN9TasObject7setTypeERK7QString @ 282 NONAME
	_ZN9TasObject9addObjectEv @ 283 NONAME
	_ZN9TasObjectC1Ev @ 284 NONAME
	_ZN9TasObjectC2Ev @ 285 NONAME
	_ZN9TasObjectD1Ev @ 286 NONAME
	_ZN9TasObjectD2Ev @ 287 NONAME
	_ZN9TasSocket11closeDeviceEv @ 288 NONAME
	_ZN9TasSocket11messageSentEv @ 289 NONAME
	_ZN9TasSocket11qt_metacallEN11QMetaObject4CallEiPPv @ 290 NONAME
	_ZN9TasSocket11qt_metacastEPKc @ 291 NONAME
	_ZN9TasSocket11sendMessageER10TasMessage @ 292 NONAME
	_ZN9TasSocket11sendRequestERKiP10QByteArray @ 293 NONAME
	_ZN9TasSocket11sendRequestERKiRK7QString @ 294 NONAME
	_ZN9TasSocket12sendResponseERKi7QStringb @ 295 NONAME
	_ZN9TasSocket12sendResponseERKiP10QByteArrayb @ 296 NONAME
	_ZN9TasSocket12socketClosedEv @ 297 NONAME
	_ZN9TasSocket13clearHandlersEv @ 298 NONAME
	_ZN9TasSocket16messageAvailableER10TasMessage @ 299 NONAME
	_ZN9TasSocket16staticMetaObjectE @ 300 NONAME DATA 16
	_ZN9TasSocket17setRequestHandlerEP14RequestHandler @ 301 NONAME
	_ZN9TasSocket18setResponseHandlerEP15ResponseHandler @ 302 NONAME
	_ZN9TasSocket19getStaticMetaObjectEv @ 303 NONAME
	_ZN9TasSocket9sendErrorERKiP10QByteArrayb @ 304 NONAME
	_ZN9TasSocketC2ER9QIODeviceP7QObject @ 305 NONAME
	_ZN9TasSocketD0Ev @ 306 NONAME
	_ZN9TasSocketD1Ev @ 307 NONAME
	_ZN9TasSocketD2Ev @ 308 NONAME
	_ZN9TasTarget10addCommandERK7QString @ 309 NONAME
	_ZN9TasTarget11findCommandERK7QString @ 310 NONAME
	_ZN9TasTarget5setIdERK7QString @ 311 NONAME
	_ZN9TasTarget7setTypeERK7QString @ 312 NONAME
	_ZN9TasTargetC1ERK7QString @ 313 NONAME
	_ZN9TasTargetC1ERKS_ @ 314 NONAME
	_ZN9TasTargetC2ERK7QString @ 315 NONAME
	_ZN9TasTargetC2ERKS_ @ 316 NONAME
	_ZN9TasTargetD1Ev @ 317 NONAME
	_ZN9TasTargetD2Ev @ 318 NONAME
	_ZNK10TasCommand13getParametersEv @ 319 NONAME
	_ZNK10TasCommand16getApiParametersEv @ 320 NONAME
	_ZNK10TasCommand24getApiParametersAndTypesEv @ 321 NONAME
	_ZNK10TasCommand4nameEv @ 322 NONAME
	_ZNK10TasCommand4textEv @ 323 NONAME
	_ZNK10TasMessage12isCompressedEv @ 324 NONAME
	_ZNK10TasMessage4flagEv @ 325 NONAME
	_ZNK13TasSharedData7asArrayEv @ 326 NONAME
	_ZNK15TasClientSocket10metaObjectEv @ 327 NONAME
	_ZNK15TasCommandModel12sourceStringEv @ 328 NONAME
	_ZNK15TasCommandModel2idEv @ 329 NONAME
	_ZNK15TasCommandModel4nameEv @ 330 NONAME
	_ZNK15TasCommandModel7serviceEv @ 331 NONAME
	_ZNK15TasServerSocket10metaObjectEv @ 332 NONAME
	_ZNK9TasSocket10metaObjectEv @ 333 NONAME
	_ZNK9TasTarget11commandListEv @ 334 NONAME
	_ZNK9TasTarget2idEv @ 335 NONAME
	_ZNK9TasTarget4typeEv @ 336 NONAME
	_ZTI12TasCoreUtils @ 337 NONAME
	_ZTI14TasUiTraverser @ 338 NONAME
	_ZTI15SerializeFilter @ 339 NONAME
	_ZTI15TasClientSocket @ 340 NONAME
	_ZTI15TasServerSocket @ 341 NONAME
	_ZTI16TestabilityUtils @ 342 NONAME
	_ZTI17TasServiceManager @ 343 NONAME
	_ZTI9TasSocket @ 344 NONAME
	_ZTV14TasUiTraverser @ 345 NONAME
	_ZTV15SerializeFilter @ 346 NONAME
	_ZTV15TasClientSocket @ 347 NONAME
	_ZTV15TasServerSocket @ 348 NONAME
	_ZTV17TasServiceManager @ 349 NONAME
	_ZTV9TasSocket @ 350 NONAME

