EXPORTS
	qt_testability_init @ 1 NONAME
	??1TasServiceManager@@UAE@XZ @ 2 NONAME ; TasServiceManager::~TasServiceManager(void)
	?isError@TasMessage@@QAE_NXZ @ 3 NONAME ; bool TasMessage::isError(void)
	?sendMessage@TasSocket@@QAE_NAAVTasMessage@@@Z @ 4 NONAME ; bool TasSocket::sendMessage(class TasMessage &)
	?warning@TasLogger@@QAEXVQString@@@Z @ 5 NONAME ; void TasLogger::warning(class QString)
	?loadPlugin@TasPluginLoader@@QAEPAVQObject@@VQString@@@Z @ 6 NONAME ; class QObject * TasPluginLoader::loadPlugin(class QString)
	??1TasLogger@@AAE@XZ @ 7 NONAME ; TasLogger::~TasLogger(void)
	?id@TasCommandModel@@QBE?AVQString@@XZ @ 8 NONAME ; class QString TasCommandModel::id(void) const
	??1TasUiTraverser@@UAE@XZ @ 9 NONAME ; TasUiTraverser::~TasUiTraverser(void)
	?setId@TasTarget@@QAEXABVQString@@@Z @ 10 NONAME ; void TasTarget::setId(class QString const &)
	?getType@TasObject@@QAE?AVQString@@XZ @ 11 NONAME ; class QString TasObject::getType(void)
	??0TasResponse@@QAE@HPAVQByteArray@@_N1@Z @ 12 NONAME ; TasResponse::TasResponse(int, class QByteArray *, bool, bool)
	?eventsToListen@TasSharedData@@QAE?AVQStringList@@XZ @ 13 NONAME ; class QStringList TasSharedData::eventsToListen(void)
	??1TasObject@@QAE@XZ @ 14 NONAME ; TasObject::~TasObject(void)
	?getStaticMetaObject@TasSocket@@SAABUQMetaObject@@XZ @ 15 NONAME ; struct QMetaObject const & TasSocket::getStaticMetaObject(void)
	?listPlugins@TasPluginLoader@@QAE?AVQStringList@@VQString@@@Z @ 16 NONAME ; class QStringList TasPluginLoader::listPlugins(class QString)
	?apiParameter@TasCommand@@QAE?AVQString@@ABV2@@Z @ 17 NONAME ; class QString TasCommand::apiParameter(class QString const &)
	?addObjectDetails@TasTraverseUtils@@QAEXPAVTasObject@@PAVQObject@@@Z @ 18 NONAME ; void TasTraverseUtils::addObjectDetails(class TasObject *, class QObject *)
	?setRequestHandler@TasSocket@@QAEXPAVRequestHandler@@@Z @ 19 NONAME ; void TasSocket::setRequestHandler(class RequestHandler *)
	?writeLogLine@TasLogger@@AAEXW4LogType@@ABVQString@@@Z @ 20 NONAME ; void TasLogger::writeLogLine(enum LogType, class QString const &)
	?addNewObjectContainer@TasDataModel@@QAEAAVTasObjectContainer@@ABVQString@@0@Z @ 21 NONAME ; class TasObjectContainer & TasDataModel::addNewObjectContainer(class QString const &, class QString const &)
	?sendMouseEvent@TasDeviceUtils@@SAXHHW4MouseButton@Qt@@W4Type@QEvent@@@Z @ 22 NONAME ; void TasDeviceUtils::sendMouseEvent(int, int, enum Qt::MouseButton, enum QEvent::Type)
	?metaObject@TasServerSocket@@UBEPBUQMetaObject@@XZ @ 23 NONAME ; struct QMetaObject const * TasServerSocket::metaObject(void) const
	?findFromObject@TestabilityUtils@@IAEPAVQGraphicsItem@@ABVQString@@PAVQObject@@@Z @ 24 NONAME ; class QGraphicsItem * TestabilityUtils::findFromObject(class QString const &, class QObject *)
	?setResponseHandler@TasSocket@@QAEXPAVResponseHandler@@@Z @ 25 NONAME ; void TasSocket::setResponseHandler(class ResponseHandler *)
	?eventType@TasCoreUtils@@SA?AVQString@@PAVQEvent@@@Z @ 26 NONAME ; class QString TasCoreUtils::eventType(class QEvent *)
	?isServerRunning@TasDeviceUtils@@SA_NXZ @ 27 NONAME ; bool TasDeviceUtils::isServerRunning(void)
	?findWidget@TestabilityUtils@@IAEPAVQWidget@@ABVQString@@@Z @ 28 NONAME ; class QWidget * TestabilityUtils::findWidget(class QString const &)
	?getValue@TestabilitySettings@@QAE?AVQVariant@@ABVQString@@@Z @ 29 NONAME ; class QVariant TestabilitySettings::getValue(class QString const &)
	?dataCompressed@TasMessage@@QAEPAVQByteArray@@XZ @ 30 NONAME ; class QByteArray * TasMessage::dataCompressed(void)
	?socketClosed@TasSocket@@IAEXXZ @ 31 NONAME ; void TasSocket::socketClosed(void)
	?parseMessageString@TasServiceManager@@IAEPAVTasCommandModel@@ABVQString@@AAV3@@Z @ 32 NONAME ; class TasCommandModel * TasServiceManager::parseMessageString(class QString const &, class QString &)
	??1TestabilitySettings@@AAE@XZ @ 33 NONAME ; TestabilitySettings::~TestabilitySettings(void)
	?creationTime@TasSharedData@@QAE?AVQDateTime@@XZ @ 34 NONAME ; class QDateTime TasSharedData::creationTime(void)
	?qt_metacall@TasSocket@@UAEHW4Call@QMetaObject@@HPAPAX@Z @ 35 NONAME ; int TasSocket::qt_metacall(enum QMetaObject::Call, int, void * *)
	?loadTraversers@TasTraverserLoader@@QAE?AV?$QHash@VQString@@PAVTasTraverseInterface@@@@XZ @ 36 NONAME ; class QHash<class QString, class TasTraverseInterface *> TasTraverserLoader::loadTraversers(void)
	?isItemInView@TestabilityUtils@@SA_NPAVQGraphicsView@@PAVQGraphicsItem@@@Z @ 37 NONAME ; bool TestabilityUtils::isItemInView(class QGraphicsView *, class QGraphicsItem *)
	?isAsynchronous@TasCommandModel@@QAE_NXZ @ 38 NONAME ; bool TasCommandModel::isAsynchronous(void)
	??1TasXmlWriter@@QAE@XZ @ 39 NONAME ; TasXmlWriter::~TasXmlWriter(void)
	?interval@TasCommandModel@@QAEHXZ @ 40 NONAME ; int TasCommandModel::interval(void)
	?setLogFile@TasLogger@@QAEXVQString@@@Z @ 41 NONAME ; void TasLogger::setLogFile(class QString)
	?uncompressData@TasMessage@@AAEXXZ @ 42 NONAME ; void TasMessage::uncompressData(void)
	?addValue@TasAttribute@@QAEXABVQPoint@@@Z @ 43 NONAME ; void TasAttribute::addValue(class QPoint const &)
	??1TasObjectContainer@@QAE@XZ @ 44 NONAME ; TasObjectContainer::~TasObjectContainer(void)
	?addValue@TasAttribute@@QAEXABVQSizeF@@@Z @ 45 NONAME ; void TasAttribute::addValue(class QSizeF const &)
	??1TasMessage@@QAE@XZ @ 46 NONAME ; TasMessage::~TasMessage(void)
	??1TasCommandModel@@QAE@XZ @ 47 NONAME ; TasCommandModel::~TasCommandModel(void)
	?service@TasCommandModel@@QBE?AVQString@@XZ @ 48 NONAME ; class QString TasCommandModel::service(void) const
	?serializeContainer@SerializeFilter@@UAE_NAAVTasObjectContainer@@@Z @ 49 NONAME ; bool SerializeFilter::serializeContainer(class TasObjectContainer &)
	?qt_metacall@TasClientSocket@@UAEHW4Call@QMetaObject@@HPAPAX@Z @ 50 NONAME ; int TasClientSocket::qt_metacall(enum QMetaObject::Call, int, void * *)
	?traverseGraphicsItem@TasUiTraverser@@QAEXAAVTasObject@@PAVQGraphicsItem@@PAVTasCommand@@@Z @ 51 NONAME ; void TasUiTraverser::traverseGraphicsItem(class TasObject &, class QGraphicsItem *, class TasCommand *)
	?trUtf8@TasServerSocket@@SA?AVQString@@PBD0@Z @ 52 NONAME ; class QString TasServerSocket::trUtf8(char const *, char const *)
	?addNewObjectContainer@TasDataModel@@QAEAAVTasObjectContainer@@XZ @ 53 NONAME ; class TasObjectContainer & TasDataModel::addNewObjectContainer(void)
	??_ETasUiTraverser@@UAE@I@Z @ 54 NONAME ; TasUiTraverser::~TasUiTraverser(unsigned int)
	?tr@TasServerSocket@@SA?AVQString@@PBD0H@Z @ 55 NONAME ; class QString TasServerSocket::tr(char const *, char const *, int)
	?tr@TasServerSocket@@SA?AVQString@@PBD0@Z @ 56 NONAME ; class QString TasServerSocket::tr(char const *, char const *)
	?addVariantValue@TasTraverseUtils@@QAEXAAVTasAttribute@@ABVQVariant@@@Z @ 57 NONAME ; void TasTraverseUtils::addVariantValue(class TasAttribute &, class QVariant const &)
	?setMessageId@TasMessage@@QAEXH@Z @ 58 NONAME ; void TasMessage::setMessageId(int)
	??0TasTraverseUtils@@QAE@XZ @ 59 NONAME ; TasTraverseUtils::TasTraverseUtils(void)
	?setValue@TestabilitySettings@@QAE_NABVQString@@ABVQVariant@@@Z @ 60 NONAME ; bool TestabilitySettings::setValue(class QString const &, class QVariant const &)
	?setData@TasMessage@@QAEXVQString@@@Z @ 61 NONAME ; void TasMessage::setData(class QString)
	?setText@TasCommand@@QAEXABVQString@@@Z @ 62 NONAME ; void TasCommand::setText(class QString const &)
	?dataAsString@TasMessage@@QAE?AVQString@@XZ @ 63 NONAME ; class QString TasMessage::dataAsString(void)
	?viewPortAndPosition@TestabilityUtils@@SAPAVQWidget@@PAVQGraphicsItem@@AAVQPoint@@@Z @ 64 NONAME ; class QWidget * TestabilityUtils::viewPortAndPosition(class QGraphicsItem *, class QPoint &)
	?messageAvailable@TasSocket@@QAEXAAVTasMessage@@@Z @ 65 NONAME ; void TasSocket::messageAvailable(class TasMessage &)
	?settings@TestabilitySettings@@SAPAV1@XZ @ 66 NONAME ; class TestabilitySettings * TestabilitySettings::settings(void)
	?setName@TasObjectContainer@@QAEXABVQString@@@Z @ 67 NONAME ; void TasObjectContainer::setName(class QString const &)
	?setName@TasAttribute@@QAEXABVQString@@@Z @ 68 NONAME ; void TasAttribute::setName(class QString const &)
	?qt_metacast@TasClientSocket@@UAEPAXPBD@Z @ 69 NONAME ; void * TasClientSocket::qt_metacast(char const *)
	?serializeDuplicates@SerializeFilter@@UAEX_N@Z @ 70 NONAME ; void SerializeFilter::serializeDuplicates(bool)
	?addObject@TasObject@@QAEAAV1@XZ @ 71 NONAME ; class TasObject & TasObject::addObject(void)
	?isMultitouch@TasCommandModel@@QAE_NXZ @ 72 NONAME ; bool TasCommandModel::isMultitouch(void)
	?serviceErrorMessage@TasServiceManager@@MAE?AVQString@@XZ @ 73 NONAME ; class QString TasServiceManager::serviceErrorMessage(void)
	?mInstance@TestabilitySettings@@0PAV1@A @ 74 NONAME ; class TestabilitySettings * TestabilitySettings::mInstance
	?gpuMemDetails@TasDeviceUtils@@QAE?AUGpuMemDetails@@XZ @ 75 NONAME ; struct GpuMemDetails TasDeviceUtils::gpuMemDetails(void)
	?sendRequest@TasSocket@@QAE_NABHABVQString@@@Z @ 76 NONAME ; bool TasSocket::sendRequest(int const &, class QString const &)
	?traverseGraphicsViewItems@TasUiTraverser@@AAEXAAVTasObject@@PAVQGraphicsView@@PAVTasCommand@@@Z @ 77 NONAME ; void TasUiTraverser::traverseGraphicsViewItems(class TasObject &, class QGraphicsView *, class TasCommand *)
	?setIsCompressed@TasMessage@@QAEX_N@Z @ 78 NONAME ; void TasMessage::setIsCompressed(bool)
	?setInterval@TasCommandModel@@QAEXH@Z @ 79 NONAME ; void TasCommandModel::setInterval(int)
	?parseCommandXml@TasCommandParser@@SAPAVTasCommandModel@@ABVQString@@@Z @ 80 NONAME ; class TasCommandModel * TasCommandParser::parseCommandXml(class QString const &)
	?sendResponse@TasSocket@@QAE_NABHVQString@@_N@Z @ 81 NONAME ; bool TasSocket::sendResponse(int const &, class QString, bool)
	?forceUiUpdate@TasCommandModel@@QAE_NXZ @ 82 NONAME ; bool TasCommandModel::forceUiUpdate(void)
	?addNewObjectContainer@TasDataModel@@QAEAAVTasObjectContainer@@HABVQString@@0@Z @ 83 NONAME ; class TasObjectContainer & TasDataModel::addNewObjectContainer(int, class QString const &, class QString const &)
	?verifyGraphicsItemMatch@TestabilityUtils@@IAE_NABVQString@@PAVQGraphicsItem@@@Z @ 84 NONAME ; bool TestabilityUtils::verifyGraphicsItemMatch(class QString const &, class QGraphicsItem *)
	??0TasObject@@AAE@XZ @ 85 NONAME ; TasObject::TasObject(void)
	?setName@TasObject@@QAEXABVQString@@@Z @ 86 NONAME ; void TasObject::setName(class QString const &)
	?printProperties@TasTraverseUtils@@QAEXPAVTasObject@@PAVQObject@@@Z @ 87 NONAME ; void TasTraverseUtils::printProperties(class TasObject *, class QObject *)
	?getParentId@TasTraverseUtils@@QAE?AVQString@@PAVQObject@@@Z @ 88 NONAME ; class QString TasTraverseUtils::getParentId(class QObject *)
	?requester@TasResponse@@QAEPAVTasSocket@@XZ @ 89 NONAME ; class TasSocket * TasResponse::requester(void)
	?addAttribute@TasObject@@QAEAAVTasAttribute@@ABVQString@@ABVQRect@@@Z @ 90 NONAME ; class TasAttribute & TasObject::addAttribute(class QString const &, class QRect const &)
	?staticMetaObject@TasSocket@@2UQMetaObject@@B @ 91 NONAME ; struct QMetaObject const TasSocket::staticMetaObject
	?serializeIntoString@TasAttribute@@AAEXAAVTasXmlWriter@@AAVSerializeFilter@@@Z @ 92 NONAME ; void TasAttribute::serializeIntoString(class TasXmlWriter &, class SerializeFilter &)
	?setErrorMessage@TasMessage@@QAEXVQString@@@Z @ 93 NONAME ; void TasMessage::setErrorMessage(class QString)
	??1TasDeviceUtils@@QAE@XZ @ 94 NONAME ; TasDeviceUtils::~TasDeviceUtils(void)
	??1TasTraverserLoader@@QAE@XZ @ 95 NONAME ; TasTraverserLoader::~TasTraverserLoader(void)
	?sendError@TasSocket@@QAE_NABHPAVQByteArray@@_N@Z @ 96 NONAME ; bool TasSocket::sendError(int const &, class QByteArray *, bool)
	?outPut@TasLogger@@AAEXABVQString@@@Z @ 97 NONAME ; void TasLogger::outPut(class QString const &)
	?findObjectContainer@TasDataModel@@QAEPAVTasObjectContainer@@ABVQString@@@Z @ 98 NONAME ; class TasObjectContainer * TasDataModel::findObjectContainer(class QString const &)
	?getApiParameters@TasCommand@@QBE?AV?$QHash@VQString@@V1@@@XZ @ 99 NONAME ; class QHash<class QString, class QString> TasCommand::getApiParameters(void) const
	?proxyCoordinates@TestabilityUtils@@SA?AVQPoint@@PAVQGraphicsItem@@_N@Z @ 100 NONAME ; class QPoint TestabilityUtils::proxyCoordinates(class QGraphicsItem *, bool)
	?performService@TasServiceManager@@IAEXAAVTasCommandModel@@AAVTasResponse@@@Z @ 101 NONAME ; void TasServiceManager::performService(class TasCommandModel &, class TasResponse &)
	?findCommand@TasTarget@@QAEPAVTasCommand@@ABVQString@@@Z @ 102 NONAME ; class TasCommand * TasTarget::findCommand(class QString const &)
	?loadFixtureInterface@TasPluginLoader@@QAEPAVTasFixturePluginInterface@@ABVQString@@@Z @ 103 NONAME ; class TasFixturePluginInterface * TasPluginLoader::loadFixtureInterface(class QString const &)
	?addApplicationDetails@TasUiTraverser@@AAEXAAVTasObject@@PAVTasCommand@@@Z @ 104 NONAME ; void TasUiTraverser::addApplicationDetails(class TasObject &, class TasCommand *)
	??0TasDataShare@@QAE@XZ @ 105 NONAME ; TasDataShare::TasDataShare(void)
	??0TasMessage@@QAE@E_NPAVQByteArray@@H@Z @ 106 NONAME ; TasMessage::TasMessage(unsigned char, bool, class QByteArray *, int)
	??_ESerializeFilter@@UAE@I@Z @ 107 NONAME ; SerializeFilter::~SerializeFilter(unsigned int)
	?findGraphicsItem@TestabilityUtils@@IAEPAVQGraphicsItem@@ABVQString@@@Z @ 108 NONAME ; class QGraphicsItem * TestabilityUtils::findGraphicsItem(class QString const &)
	?tr@TasSocket@@SA?AVQString@@PBD0@Z @ 109 NONAME ; class QString TasSocket::tr(char const *, char const *)
	?trUtf8@TasSocket@@SA?AVQString@@PBD0H@Z @ 110 NONAME ; class QString TasSocket::trUtf8(char const *, char const *, int)
	?castToGraphicsWidget@TestabilityUtils@@SAPAVQGraphicsWidget@@PAVQGraphicsItem@@@Z @ 111 NONAME ; class QGraphicsWidget * TestabilityUtils::castToGraphicsWidget(class QGraphicsItem *)
	?detachSharedData@TasDataShare@@QAE_NABVQString@@@Z @ 112 NONAME ; bool TasDataShare::detachSharedData(class QString const &)
	??0TasPluginLoader@@QAE@XZ @ 113 NONAME ; TasPluginLoader::TasPluginLoader(void)
	?addGraphicsItemCoordinates@TasTraverseUtils@@QAE?AU?$QPair@VQPoint@@V1@@@PAVTasObject@@PAVQGraphicsItem@@PAVTasCommand@@@Z @ 114 NONAME ; struct QPair<class QPoint, class QPoint> TasTraverseUtils::addGraphicsItemCoordinates(class TasObject *, class QGraphicsItem *, class TasCommand *)
	??0TasTarget@@QAE@ABV0@@Z @ 115 NONAME ; TasTarget::TasTarget(class TasTarget const &)
	?setRequester@TasResponse@@QAEXPAVTasSocket@@@Z @ 116 NONAME ; void TasResponse::setRequester(class TasSocket *)
	?openElement@TasXmlWriter@@QAEXABVQString@@@Z @ 117 NONAME ; void TasXmlWriter::openElement(class QString const &)
	?addAttribute@TasObject@@QAEAAVTasAttribute@@ABVQString@@ABVQRectF@@@Z @ 118 NONAME ; class TasAttribute & TasObject::addAttribute(class QString const &, class QRectF const &)
	?addNewObject@TasObject@@QAEAAV1@VQString@@ABV2@1@Z @ 119 NONAME ; class TasObject & TasObject::addNewObject(class QString, class QString const &, class QString const &)
	??0TasMessage@@QAE@XZ @ 120 NONAME ; TasMessage::TasMessage(void)
	?setData@TasMessage@@QAEXPAVQByteArray@@_N@Z @ 121 NONAME ; void TasMessage::setData(class QByteArray *, bool)
	?parameter@TasCommand@@QAE?AVQString@@ABV2@@Z @ 122 NONAME ; class QString TasCommand::parameter(class QString const &)
	??0TasServerSocket@@QAE@AAVQIODevice@@PAVQObject@@@Z @ 123 NONAME ; TasServerSocket::TasServerSocket(class QIODevice &, class QObject *)
	?logEvents@TasLogger@@QAEXVQStringList@@@Z @ 124 NONAME ; void TasLogger::logEvents(class QStringList)
	??0TasDataModel@@QAE@XZ @ 125 NONAME ; TasDataModel::TasDataModel(void)
	??0TasLogger@@AAE@XZ @ 126 NONAME ; TasLogger::TasLogger(void)
	?clearModel@TasDataModel@@QAEXXZ @ 127 NONAME ; void TasDataModel::clearModel(void)
	??0TestabilitySettings@@AAE@XZ @ 128 NONAME ; TestabilitySettings::TestabilitySettings(void)
	??0TasXmlWriter@@QAE@AAVQTextStream@@@Z @ 129 NONAME ; TasXmlWriter::TasXmlWriter(class QTextStream &)
	?configureEventLogger@TasLogger@@QAEXAAVTasCommand@@@Z @ 130 NONAME ; void TasLogger::configureEventLogger(class TasCommand &)
	?parseExecutable@TasCoreUtils@@SA?AVQString@@V2@@Z @ 131 NONAME ; class QString TasCoreUtils::parseExecutable(class QString)
	?name@TasCommand@@QBE?AVQString@@XZ @ 132 NONAME ; class QString TasCommand::name(void) const
	??0TasDeviceUtils@@QAE@XZ @ 133 NONAME ; TasDeviceUtils::TasDeviceUtils(void)
	?closeElement@TasXmlWriter@@QAEXABVQString@@@Z @ 134 NONAME ; void TasXmlWriter::closeElement(class QString const &)
	?registerCommand@TasServiceManager@@QAEXPAVTasServiceCommand@@@Z @ 135 NONAME ; void TasServiceManager::registerCommand(class TasServiceCommand *)
	?addNewObject@TasObjectContainer@@QAEAAVTasObject@@XZ @ 136 NONAME ; class TasObject & TasObjectContainer::addNewObject(void)
	?openElement@TasXmlWriter@@QAEXABVQString@@V?$QMap@VQString@@V1@@@@Z @ 137 NONAME ; void TasXmlWriter::openElement(class QString const &, class QMap<class QString, class QString>)
	?closeDevice@TasSocket@@IAEXXZ @ 138 NONAME ; void TasSocket::closeDevice(void)
	?clearLogFile@TasLogger@@QAEXXZ @ 139 NONAME ; void TasLogger::clearLogFile(void)
	??_ETasSocket@@UAE@I@Z @ 140 NONAME ; TasSocket::~TasSocket(unsigned int)
	?lookForMatch@TestabilityUtils@@IAEPAVQGraphicsItem@@V?$QList@PAVQGraphicsItem@@@@ABVQString@@@Z @ 141 NONAME ; class QGraphicsItem * TestabilityUtils::lookForMatch(class QList<class QGraphicsItem *>, class QString const &)
	?handleServiceRequest@TasServiceManager@@MAEXAAVTasCommandModel@@PAVTasSocket@@H@Z @ 142 NONAME ; void TasServiceManager::handleServiceRequest(class TasCommandModel &, class TasSocket *, int)
	?qt_metacast@TasServerSocket@@UAEPAXPBD@Z @ 143 NONAME ; void * TasServerSocket::qt_metacast(char const *)
	?isCustomTraverse@TestabilityUtils@@SA_NXZ @ 144 NONAME ; bool TestabilityUtils::isCustomTraverse(void)
	?addValue@TasAttribute@@QAEXABVQPointF@@@Z @ 145 NONAME ; void TasAttribute::addValue(class QPointF const &)
	?setIdentification@TasServerSocket@@QAEXABVQString@@@Z @ 146 NONAME ; void TasServerSocket::setIdentification(class QString const &)
	?setName@TasCommand@@QAEXABVQString@@@Z @ 147 NONAME ; void TasCommand::setName(class QString const &)
	?addValue@TasAttribute@@QAEXABVQRect@@@Z @ 148 NONAME ; void TasAttribute::addValue(class QRect const &)
	?serializeIntoString@TasObjectContainer@@AAEXAAVTasXmlWriter@@AAVSerializeFilter@@@Z @ 149 NONAME ; void TasObjectContainer::serializeIntoString(class TasXmlWriter &, class SerializeFilter &)
	?serializeAttribute@SerializeFilter@@UAE_NAAVTasAttribute@@@Z @ 150 NONAME ; bool SerializeFilter::serializeAttribute(class TasAttribute &)
	?mInstance@TasLogger@@0PAV1@A @ 151 NONAME ; class TasLogger * TasLogger::mInstance
	?info@TasLogger@@QAEXVQString@@@Z @ 152 NONAME ; void TasLogger::info(class QString)
	?printGraphicsItemProperties@TasTraverseUtils@@QAEXPAVTasObject@@PAVQGraphicsItem@@@Z @ 153 NONAME ; void TasTraverseUtils::printGraphicsItemProperties(class TasObject *, class QGraphicsItem *)
	??1TasTarget@@QAE@XZ @ 154 NONAME ; TasTarget::~TasTarget(void)
	?addTarget@TasCommandModel@@QAEAAVTasTarget@@ABVQString@@@Z @ 155 NONAME ; class TasTarget & TasCommandModel::addTarget(class QString const &)
	??1ResponseFilter@@UAE@XZ @ 156 NONAME ; ResponseFilter::~ResponseFilter(void)
	?addAttribute@TasObject@@QAEAAVTasAttribute@@ABVQString@@M@Z @ 157 NONAME ; class TasAttribute & TasObject::addAttribute(class QString const &, float)
	?debug@TasLogger@@QAEXVQString@@@Z @ 158 NONAME ; void TasLogger::debug(class QString)
	?disableLogger@TasLogger@@QAEXXZ @ 159 NONAME ; void TasLogger::disableLogger(void)
	??1TasDataShare@@QAE@XZ @ 160 NONAME ; TasDataShare::~TasDataShare(void)
	?staticMetaObject@TasClientSocket@@2UQMetaObject@@B @ 161 NONAME ; struct QMetaObject const TasClientSocket::staticMetaObject
	?staticMetaObject@TasServerSocket@@2UQMetaObject@@B @ 162 NONAME ; struct QMetaObject const TasServerSocket::staticMetaObject
	?stopEventLogging@TasLogger@@QAEXXZ @ 163 NONAME ; void TasLogger::stopEventLogging(void)
	?targetList@TasCommandModel@@QAE?AV?$QList@PAVTasTarget@@@@XZ @ 164 NONAME ; class QList<class TasTarget *> TasCommandModel::targetList(void)
	?findTarget@TasCommandModel@@QAEPAVTasTarget@@ABVQString@@@Z @ 165 NONAME ; class TasTarget * TasCommandModel::findTarget(class QString const &)
	?addAttribute@TasObject@@QAEAAVTasAttribute@@ABVQString@@H@Z @ 166 NONAME ; class TasAttribute & TasObject::addAttribute(class QString const &, int)
	??0TasCommand@@QAE@ABVQString@@@Z @ 167 NONAME ; TasCommand::TasCommand(class QString const &)
	??1TasSharedData@@QAE@XZ @ 168 NONAME ; TasSharedData::~TasSharedData(void)
	?addValue@TasAttribute@@QAEXABVQRectF@@@Z @ 169 NONAME ; void TasAttribute::addValue(class QRectF const &)
	?setDataType@TasAttribute@@QAEXABVQString@@@Z @ 170 NONAME ; void TasAttribute::setDataType(class QString const &)
	?createFilter@TasTraverseUtils@@QAEXPAVTasCommand@@@Z @ 171 NONAME ; void TasTraverseUtils::createFilter(class TasCommand *)
	?getItemLocationDetails@TestabilityUtils@@SA?AUItemLocationDetails@@PAVQGraphicsItem@@PAVTasCommand@@@Z @ 172 NONAME ; struct ItemLocationDetails TestabilityUtils::getItemLocationDetails(class QGraphicsItem *, class TasCommand *)
	?setId@TasCommandModel@@QAEXABVQString@@@Z @ 173 NONAME ; void TasCommandModel::setId(class QString const &)
	??0TasAttribute@@AAE@XZ @ 174 NONAME ; TasAttribute::TasAttribute(void)
	?isCompressed@TasMessage@@QBE_NXZ @ 175 NONAME ; bool TasMessage::isCompressed(void) const
	?sendRequest@TasSocket@@QAE_NABHPAVQByteArray@@@Z @ 176 NONAME ; bool TasSocket::sendRequest(int const &, class QByteArray *)
	??1TasDataModel@@QAE@XZ @ 177 NONAME ; TasDataModel::~TasDataModel(void)
	?trUtf8@TasSocket@@SA?AVQString@@PBD0@Z @ 178 NONAME ; class QString TasSocket::trUtf8(char const *, char const *)
	?setFlag@TasMessage@@QAEXE@Z @ 179 NONAME ; void TasMessage::setFlag(unsigned char)
	?name@TasCommandModel@@QBE?AVQString@@XZ @ 180 NONAME ; class QString TasCommandModel::name(void) const
	??1TasClientSocket@@UAE@XZ @ 181 NONAME ; TasClientSocket::~TasClientSocket(void)
	?tryToLoadFixture@TasPluginLoader@@QAEPAVTasFixturePluginInterface@@VQString@@0@Z @ 182 NONAME ; class TasFixturePluginInterface * TasPluginLoader::tryToLoadFixture(class QString, class QString)
	?messageSent@TasSocket@@IAEXXZ @ 183 NONAME ; void TasSocket::messageSent(void)
	?addFont@TasTraverseUtils@@QAEXPAVTasObject@@VQFont@@@Z @ 184 NONAME ; void TasTraverseUtils::addFont(class TasObject *, class QFont)
	?addParameter@TasCommand@@QAEXABVQString@@0@Z @ 185 NONAME ; void TasCommand::addParameter(class QString const &, class QString const &)
	?addBooleanAttribute@TasObject@@QAEAAVTasAttribute@@ABVQString@@_N@Z @ 186 NONAME ; class TasAttribute & TasObject::addBooleanAttribute(class QString const &, bool)
	?sendResponse@TasSocket@@QAE_NABHPAVQByteArray@@_N@Z @ 187 NONAME ; bool TasSocket::sendResponse(int const &, class QByteArray *, bool)
	?error@TasLogger@@QAEXVQString@@@Z @ 188 NONAME ; void TasLogger::error(class QString)
	?serializeModel@TasDataModel@@QAEXAAVQByteArray@@PAVSerializeFilter@@@Z @ 189 NONAME ; void TasDataModel::serializeModel(class QByteArray &, class SerializeFilter *)
	??1TasCommand@@QAE@XZ @ 190 NONAME ; TasCommand::~TasCommand(void)
	??1TasServerSocket@@UAE@XZ @ 191 NONAME ; TasServerSocket::~TasServerSocket(void)
	?addNewObject@TasObjectContainer@@QAEAAVTasObject@@ABVQString@@00@Z @ 192 NONAME ; class TasObject & TasObjectContainer::addNewObject(class QString const &, class QString const &, class QString const &)
	?setOutputter@TasLogger@@QAEX_N@Z @ 193 NONAME ; void TasLogger::setOutputter(bool)
	?setFilterLists@TasUiTraverser@@AAEXPAVTasCommand@@@Z @ 194 NONAME ; void TasUiTraverser::setFilterLists(class TasCommand *)
	??0TasSharedData@@QAE@VQStringList@@0@Z @ 195 NONAME ; TasSharedData::TasSharedData(class QStringList, class QStringList)
	??_ETasServiceManager@@UAE@I@Z @ 196 NONAME ; TasServiceManager::~TasServiceManager(unsigned int)
	?useQDebug@TasLogger@@QAEX_N@Z @ 197 NONAME ; void TasLogger::useQDebug(bool)
	?id@TasTarget@@QBE?AVQString@@XZ @ 198 NONAME ; class QString TasTarget::id(void) const
	?filterPlugin@TasUiTraverser@@AAE_NABVQString@@@Z @ 199 NONAME ; bool TasUiTraverser::filterPlugin(class QString const &)
	?addAttribute@TasObject@@QAEAAVTasAttribute@@ABVQString@@ABVQSize@@@Z @ 200 NONAME ; class TasAttribute & TasObject::addAttribute(class QString const &, class QSize const &)
	?messageId@TasMessage@@QAEHXZ @ 201 NONAME ; int TasMessage::messageId(void)
	??_ETasClientSocket@@UAE@I@Z @ 202 NONAME ; TasClientSocket::~TasClientSocket(unsigned int)
	??1TasPluginLoader@@QAE@XZ @ 203 NONAME ; TasPluginLoader::~TasPluginLoader(void)
	??0TasSocket@@QAE@AAVQIODevice@@PAVQObject@@@Z @ 204 NONAME ; TasSocket::TasSocket(class QIODevice &, class QObject *)
	??0TasClientSocket@@QAE@AAVQIODevice@@PAVQObject@@@Z @ 205 NONAME ; TasClientSocket::TasClientSocket(class QIODevice &, class QObject *)
	?serializeObject@SerializeFilter@@UAE_NAAVTasObject@@@Z @ 206 NONAME ; bool SerializeFilter::serializeObject(class TasObject &)
	?setService@TasCommandModel@@QAEXABVQString@@@Z @ 207 NONAME ; void TasCommandModel::setService(class QString const &)
	??1TasResponse@@QAE@XZ @ 208 NONAME ; TasResponse::~TasResponse(void)
	?addTextContent@TasXmlWriter@@QAEXABVQString@@@Z @ 209 NONAME ; void TasXmlWriter::addTextContent(class QString const &)
	?graphicsItemId@TestabilityUtils@@SA?AVQString@@PAVQGraphicsItem@@@Z @ 210 NONAME ; class QString TestabilityUtils::graphicsItemId(class QGraphicsItem *)
	?qt_metacast@TasSocket@@UAEPAXPBD@Z @ 211 NONAME ; void * TasSocket::qt_metacast(char const *)
	?serializeIntoString@TasObject@@AAEXAAVTasXmlWriter@@AAVSerializeFilter@@@Z @ 212 NONAME ; void TasObject::serializeIntoString(class TasXmlWriter &, class SerializeFilter &)
	?autostart@TestabilityUtils@@SA_NXZ @ 213 NONAME ; bool TestabilityUtils::autostart(void)
	??_ETestabilityUtils@@UAE@I@Z @ 214 NONAME ; TestabilityUtils::~TestabilityUtils(unsigned int)
	?addSystemInformation@TasDeviceUtils@@SAXAAVTasObject@@@Z @ 215 NONAME ; void TasDeviceUtils::addSystemInformation(class TasObject &)
	?metaObject@TasSocket@@UBEPBUQMetaObject@@XZ @ 216 NONAME ; struct QMetaObject const * TasSocket::metaObject(void) const
	??0TasTarget@@QAE@ABVQString@@@Z @ 217 NONAME ; TasTarget::TasTarget(class QString const &)
	?addCommand@TasTarget@@QAEAAVTasCommand@@ABVQString@@@Z @ 218 NONAME ; class TasCommand & TasTarget::addCommand(class QString const &)
	??0TasSharedData@@AAE@VQString@@@Z @ 219 NONAME ; TasSharedData::TasSharedData(class QString)
	?setLogDir@TasLogger@@QAEXVQString@@@Z @ 220 NONAME ; void TasLogger::setLogDir(class QString)
	?startServer@TasCoreUtils@@SA_NXZ @ 221 NONAME ; bool TasCoreUtils::startServer(void)
	?trUtf8@TasClientSocket@@SA?AVQString@@PBD0H@Z @ 222 NONAME ; class QString TasClientSocket::trUtf8(char const *, char const *, int)
	?closeConnection@TasClientSocket@@UAEXXZ @ 223 NONAME ; void TasClientSocket::closeConnection(void)
	??_ETasServerSocket@@UAE@I@Z @ 224 NONAME ; TasServerSocket::~TasServerSocket(unsigned int)
	?addSystemMemoryStatus@TasDeviceUtils@@SAXAAVTasObject@@@Z @ 225 NONAME ; void TasDeviceUtils::addSystemMemoryStatus(class TasObject &)
	?getParameters@TasCommand@@IBE?AV?$QHash@VQString@@V1@@@XZ @ 226 NONAME ; class QHash<class QString, class QString> TasCommand::getParameters(void) const
	??1TestabilityUtils@@UAE@XZ @ 227 NONAME ; TestabilityUtils::~TestabilityUtils(void)
	?setId@TasObjectContainer@@QAEXH@Z @ 228 NONAME ; void TasObjectContainer::setId(int)
	?currentProcessHeapSize@TasDeviceUtils@@SAHXZ @ 229 NONAME ; int TasDeviceUtils::currentProcessHeapSize(void)
	?configureLogger@TasLogger@@QAEXAAVTasCommand@@@Z @ 230 NONAME ; void TasLogger::configureLogger(class TasCommand &)
	?clearFilter@TasTraverseUtils@@QAEXXZ @ 231 NONAME ; void TasTraverseUtils::clearFilter(void)
	?setType@TasObject@@QAEXABVQString@@@Z @ 232 NONAME ; void TasObject::setType(class QString const &)
	?setType@TasObjectContainer@@QAEXABVQString@@@Z @ 233 NONAME ; void TasObjectContainer::setType(class QString const &)
	?closeConnection@TasServerSocket@@UAEXXZ @ 234 NONAME ; void TasServerSocket::closeConnection(void)
	?initializeFixturePlugins@TasPluginLoader@@QAEXXZ @ 235 NONAME ; void TasPluginLoader::initializeFixturePlugins(void)
	?clearHandlers@TasSocket@@QAEXXZ @ 236 NONAME ; void TasSocket::clearHandlers(void)
	?getStaticMetaObject@TasClientSocket@@SAABUQMetaObject@@XZ @ 237 NONAME ; struct QMetaObject const & TasClientSocket::getStaticMetaObject(void)
	??_EResponseFilter@@UAE@I@Z @ 238 NONAME ; ResponseFilter::~ResponseFilter(unsigned int)
	??1TasSocket@@UAE@XZ @ 239 NONAME ; TasSocket::~TasSocket(void)
	?sourceString@TasCommandModel@@QBE?AVQString@@XZ @ 240 NONAME ; class QString TasCommandModel::sourceString(void) const
	?objectId@TasCoreUtils@@SA?AVQString@@PAVQObject@@@Z @ 241 NONAME ; class QString TasCoreUtils::objectId(class QObject *)
	?currentProcessCpuTime@TasDeviceUtils@@SAMXZ @ 242 NONAME ; float TasDeviceUtils::currentProcessCpuTime(void)
	?addAttribute@TasObject@@QAEAAVTasAttribute@@ABVQString@@ABVQPointF@@@Z @ 243 NONAME ; class TasAttribute & TasObject::addAttribute(class QString const &, class QPointF const &)
	?getApplicationWindow@TestabilityUtils@@IAEPAVQWidget@@XZ @ 244 NONAME ; class QWidget * TestabilityUtils::getApplicationWindow(void)
	?setMultitouch@TasCommandModel@@QAEX_N@Z @ 245 NONAME ; void TasCommandModel::setMultitouch(bool)
	?asArray@TasSharedData@@QBE?AVQByteArray@@XZ @ 246 NONAME ; class QByteArray TasSharedData::asArray(void) const
	?addValue@TasAttribute@@QAEXABVQString@@@Z @ 247 NONAME ; void TasAttribute::addValue(class QString const &)
	?apiParameterAndType@TasCommand@@QAE?AU?$QPair@VQString@@V1@@@ABVQString@@@Z @ 248 NONAME ; struct QPair<class QString, class QString> TasCommand::apiParameterAndType(class QString const &)
	?setIsError@TasMessage@@QAEX_N@Z @ 249 NONAME ; void TasMessage::setIsError(bool)
	?setType@TasAttribute@@QAEXABVQString@@@Z @ 250 NONAME ; void TasAttribute::setType(class QString const &)
	??0TasCommand@@QAE@ABV0@@Z @ 251 NONAME ; TasCommand::TasCommand(class TasCommand const &)
	?isBlackListed@TestabilityUtils@@SA_NXZ @ 252 NONAME ; bool TestabilityUtils::isBlackListed(void)
	??0SerializeFilter@@QAE@XZ @ 253 NONAME ; SerializeFilter::SerializeFilter(void)
	?fatal@TasLogger@@QAEXVQString@@@Z @ 254 NONAME ; void TasLogger::fatal(class QString)
	?includeAttribute@TasTraverseUtils@@QAE_NABVQString@@@Z @ 255 NONAME ; bool TasTraverseUtils::includeAttribute(class QString const &)
	?setType@TasTarget@@QAEXABVQString@@@Z @ 256 NONAME ; void TasTarget::setType(class QString const &)
	?metaObject@TasClientSocket@@UBEPBUQMetaObject@@XZ @ 257 NONAME ; struct QMetaObject const * TasClientSocket::metaObject(void) const
	??0TasCommandModel@@QAE@XZ @ 258 NONAME ; TasCommandModel::TasCommandModel(void)
	??0TasServiceManager@@QAE@XZ @ 259 NONAME ; TasServiceManager::TasServiceManager(void)
	?setName@TasCommandModel@@QAEXABVQString@@@Z @ 260 NONAME ; void TasCommandModel::setName(class QString const &)
	?addValue@TasAttribute@@QAEXABVQSize@@@Z @ 261 NONAME ; void TasAttribute::addValue(class QSize const &)
	?setSourceString@TasCommandModel@@QAEXABVQString@@@Z @ 262 NONAME ; void TasCommandModel::setSourceString(class QString const &)
	?parentProxy@TestabilityUtils@@SAPAVQGraphicsProxyWidget@@PAVQWidget@@@Z @ 263 NONAME ; class QGraphicsProxyWidget * TestabilityUtils::parentProxy(class QWidget *)
	?enableLogger@TasLogger@@QAEXXZ @ 264 NONAME ; void TasLogger::enableLogger(void)
	?signalsToListen@TasSharedData@@QAE?AVQStringList@@XZ @ 265 NONAME ; class QStringList TasSharedData::signalsToListen(void)
	?removeLogger@TasLogger@@SAXXZ @ 266 NONAME ; void TasLogger::removeLogger(void)
	?pointerId@TasCoreUtils@@SA?AVQString@@PAX@Z @ 267 NONAME ; class QString TasCoreUtils::pointerId(void *)
	?flag@TasMessage@@QBEEXZ @ 268 NONAME ; unsigned char TasMessage::flag(void) const
	?deleteInstance@TestabilitySettings@@SAXXZ @ 269 NONAME ; void TestabilitySettings::deleteInstance(void)
	?addAttribute@TasObject@@QAEAAVTasAttribute@@ABVQString@@0@Z @ 270 NONAME ; class TasAttribute & TasObject::addAttribute(class QString const &, class QString const &)
	?qt_metacall@TasServerSocket@@UAEHW4Call@QMetaObject@@HPAPAX@Z @ 271 NONAME ; int TasServerSocket::qt_metacall(enum QMetaObject::Call, int, void * *)
	?data@TasMessage@@QAEPAVQByteArray@@XZ @ 272 NONAME ; class QByteArray * TasMessage::data(void)
	?commandList@TasTarget@@QBE?AV?$QList@PAVTasCommand@@@@XZ @ 273 NONAME ; class QList<class TasCommand *> TasTarget::commandList(void) const
	?setParentId@TasObject@@QAEXABVQString@@@Z @ 274 NONAME ; void TasObject::setParentId(class QString const &)
	?setLogSize@TasLogger@@QAEXH@Z @ 275 NONAME ; void TasLogger::setLogSize(int)
	?addAttribute@TasObject@@QAEAAVTasAttribute@@XZ @ 276 NONAME ; class TasAttribute & TasObject::addAttribute(void)
	?setLevel@TasLogger@@QAEXABW4LogType@@@Z @ 277 NONAME ; void TasLogger::setLevel(enum LogType const &)
	?resetInactivity@TasDeviceUtils@@SAXXZ @ 278 NONAME ; void TasDeviceUtils::resetInactivity(void)
	?tr@TasClientSocket@@SA?AVQString@@PBD0H@Z @ 279 NONAME ; class QString TasClientSocket::tr(char const *, char const *, int)
	??1SerializeFilter@@UAE@XZ @ 280 NONAME ; SerializeFilter::~SerializeFilter(void)
	??1TasAttribute@@QAE@XZ @ 281 NONAME ; TasAttribute::~TasAttribute(void)
	?traverseObject@TasUiTraverser@@QAEXAAVTasObject@@PAVQObject@@PAVTasCommand@@@Z @ 282 NONAME ; void TasUiTraverser::traverseObject(class TasObject &, class QObject *, class TasCommand *)
	?traverseGraphicsItemList@TasUiTraverser@@AAEXAAVTasObject@@PAVQGraphicsItem@@PAVTasCommand@@@Z @ 283 NONAME ; void TasUiTraverser::traverseGraphicsItemList(class TasObject &, class QGraphicsItem *, class TasCommand *)
	?tr@TasSocket@@SA?AVQString@@PBD0H@Z @ 284 NONAME ; class QString TasSocket::tr(char const *, char const *, int)
	?getUiState@TasUiTraverser@@QAEPAVTasDataModel@@PAVTasCommand@@@Z @ 285 NONAME ; class TasDataModel * TasUiTraverser::getUiState(class TasCommand *)
	?loadSharedData@TasDataShare@@QAEPAVTasSharedData@@ABVQString@@@Z @ 286 NONAME ; class TasSharedData * TasDataShare::loadSharedData(class QString const &)
	?disconnected@TasClientSocket@@UAEXXZ @ 287 NONAME ; void TasClientSocket::disconnected(void)
	?addApiParameter@TasCommand@@QAEXABVQString@@00@Z @ 288 NONAME ; void TasCommand::addApiParameter(class QString const &, class QString const &, class QString const &)
	?getApiParametersAndTypes@TasCommand@@QBE?AV?$QHash@VQString@@U?$QPair@VQString@@V1@@@@@XZ @ 289 NONAME ; class QHash<class QString, struct QPair<class QString, class QString> > TasCommand::getApiParametersAndTypes(void) const
	?serviceRequest@TasServiceManager@@UAEXAAVTasMessage@@PAVTasSocket@@@Z @ 290 NONAME ; void TasServiceManager::serviceRequest(class TasMessage &, class TasSocket *)
	??0TasObjectContainer@@AAE@XZ @ 291 NONAME ; TasObjectContainer::TasObjectContainer(void)
	??1TasTraverseUtils@@QAE@XZ @ 292 NONAME ; TasTraverseUtils::~TasTraverseUtils(void)
	?trUtf8@TasClientSocket@@SA?AVQString@@PBD0@Z @ 293 NONAME ; class QString TasClientSocket::trUtf8(char const *, char const *)
	?encodeString@TasXmlWriter@@AAE?AVQString@@ABV2@@Z @ 294 NONAME ; class QString TasXmlWriter::encodeString(class QString const &)
	?setId@TasObject@@QAEXABVQString@@@Z @ 295 NONAME ; void TasObject::setId(class QString const &)
	?wait@TasCoreUtils@@SAXH@Z @ 296 NONAME ; void TasCoreUtils::wait(int)
	?addTextInfo@TasTraverseUtils@@QAEXPAVTasObject@@ABVQString@@ABVQFont@@MW4TextElideMode@Qt@@@Z @ 297 NONAME ; void TasTraverseUtils::addTextInfo(class TasObject *, class QString const &, class QFont const &, float, enum Qt::TextElideMode)
	?tr@TasClientSocket@@SA?AVQString@@PBD0@Z @ 298 NONAME ; class QString TasClientSocket::tr(char const *, char const *)
	?logger@TasLogger@@SAPAV1@XZ @ 299 NONAME ; class TasLogger * TasLogger::logger(void)
	?setAsynchronous@TasCommandModel@@QAEX_N@Z @ 300 NONAME ; void TasCommandModel::setAsynchronous(bool)
	?getStaticMetaObject@TasServerSocket@@SAABUQMetaObject@@XZ @ 301 NONAME ; struct QMetaObject const & TasServerSocket::getStaticMetaObject(void)
	?trUtf8@TasServerSocket@@SA?AVQString@@PBD0H@Z @ 302 NONAME ; class QString TasServerSocket::trUtf8(char const *, char const *, int)
	?storeSharedData@TasDataShare@@QAE_NABVQString@@ABVTasSharedData@@@Z @ 303 NONAME ; bool TasDataShare::storeSharedData(class QString const &, class TasSharedData const &)
	?serializeIntoString@TasDataModel@@AAEXAAVTasXmlWriter@@AAVSerializeFilter@@@Z @ 304 NONAME ; void TasDataModel::serializeIntoString(class TasXmlWriter &, class SerializeFilter &)
	?disconnected@TasServerSocket@@UAEXXZ @ 305 NONAME ; void TasServerSocket::disconnected(void)
	?addAttribute@TasObject@@QAEAAVTasAttribute@@ABVQString@@ABVQPoint@@@Z @ 306 NONAME ; class TasAttribute & TasObject::addAttribute(class QString const &, class QPoint const &)
	?getViewForItem@TestabilityUtils@@SAPAVQGraphicsView@@PAVQGraphicsItem@@@Z @ 307 NONAME ; class QGraphicsView * TestabilityUtils::getViewForItem(class QGraphicsItem *)
	??0TasUiTraverser@@QAE@V?$QHash@VQString@@PAVTasTraverseInterface@@@@@Z @ 308 NONAME ; TasUiTraverser::TasUiTraverser(class QHash<class QString, class TasTraverseInterface *>)
	?forceUiUpdate@TasCommandModel@@QAEX_N@Z @ 309 NONAME ; void TasCommandModel::forceUiUpdate(bool)
	?type@TasTarget@@QBE?AVQString@@XZ @ 310 NONAME ; class QString TasTarget::type(void) const
	?text@TasCommand@@QBE?AVQString@@XZ @ 311 NONAME ; class QString TasCommand::text(void) const
	?addAttribute@TasObject@@QAEAAVTasAttribute@@ABVQString@@ABVQSizeF@@@Z @ 312 NONAME ; class TasAttribute & TasObject::addAttribute(class QString const &, class QSizeF const &)
	?getApplicationName@TasCoreUtils@@SA?AVQString@@XZ @ 313 NONAME ; class QString TasCoreUtils::getApplicationName(void)

